; ModuleID = '44/392.c'
source_filename = "44/392.c"
target datalayout = "e-m:e-p270:32:32-p271:32:32-p272:64:64-i64:64-f80:128-n8:16:32:64-S128"
target triple = "x86_64-pc-linux-gnu"

@.str = private unnamed_addr constant [3 x i8] c"%d\00", align 1
@.str.1 = private unnamed_addr constant [4 x i8] c"%d\0A\00", align 1

; Function Attrs: noinline nounwind uwtable
define dso_local i32 @main() #0 {
  %1 = alloca i32, align 4
  %2 = alloca i32, align 4
  %3 = alloca i32, align 4
  %4 = alloca i32, align 4
  %5 = alloca i32, align 4
  store i32 0, i32* %1, align 4
  store i32 0, i32* %2, align 4
  br label %6

6:                                                ; preds = %15, %0
  %7 = load i32, i32* %2, align 4
  %8 = icmp slt i32 %7, 6
  br i1 %8, label %9, label %18

9:                                                ; preds = %6
  %10 = call i32 (i8*, ...) @__isoc99_scanf(i8* getelementptr inbounds ([3 x i8], [3 x i8]* @.str, i64 0, i64 0), i32* %3)
  %11 = load i32, i32* %3, align 4
  %12 = call i32 @reverse(i32 %11)
  store i32 %12, i32* %4, align 4
  %13 = load i32, i32* %4, align 4
  %14 = call i32 (i8*, ...) @printf(i8* getelementptr inbounds ([4 x i8], [4 x i8]* @.str.1, i64 0, i64 0), i32 %13)
  br label %15

15:                                               ; preds = %9
  %16 = load i32, i32* %2, align 4
  %17 = add nsw i32 %16, 1
  store i32 %17, i32* %2, align 4
  br label %6

18:                                               ; preds = %6
  %19 = call i32 (i8*, ...) @__isoc99_scanf(i8* getelementptr inbounds ([3 x i8], [3 x i8]* @.str, i64 0, i64 0), i32* %5)
  ret i32 0
}

declare dso_local i32 @__isoc99_scanf(i8*, ...) #1

; Function Attrs: noinline nounwind uwtable
define dso_local i32 @reverse(i32 %0) #0 {
  %2 = alloca i32, align 4
  %3 = alloca i32, align 4
  %4 = alloca i32, align 4
  %5 = alloca [100 x i32], align 16
  %6 = alloca i32, align 4
  %7 = alloca i32, align 4
  %8 = alloca i32, align 4
  %9 = alloca i32, align 4
  store i32 %0, i32* %2, align 4
  %10 = load i32, i32* %2, align 4
  store i32 %10, i32* %3, align 4
  store i32 0, i32* %4, align 4
  store i32 1, i32* %6, align 4
  store i32 0, i32* %7, align 4
  br label %11

11:                                               ; preds = %15, %1
  %12 = load i32, i32* %3, align 4
  %13 = sdiv i32 %12, 10
  %14 = icmp ne i32 %13, 0
  br i1 %14, label %15, label %25

15:                                               ; preds = %11
  %16 = load i32, i32* %3, align 4
  %17 = srem i32 %16, 10
  %18 = load i32, i32* %7, align 4
  %19 = sext i32 %18 to i64
  %20 = getelementptr inbounds [100 x i32], [100 x i32]* %5, i64 0, i64 %19
  store i32 %17, i32* %20, align 4
  %21 = load i32, i32* %3, align 4
  %22 = sdiv i32 %21, 10
  store i32 %22, i32* %3, align 4
  %23 = load i32, i32* %7, align 4
  %24 = add nsw i32 %23, 1
  store i32 %24, i32* %7, align 4
  br label %11

25:                                               ; preds = %11
  %26 = load i32, i32* %3, align 4
  %27 = srem i32 %26, 10
  %28 = load i32, i32* %7, align 4
  %29 = sext i32 %28 to i64
  %30 = getelementptr inbounds [100 x i32], [100 x i32]* %5, i64 0, i64 %29
  store i32 %27, i32* %30, align 4
  %31 = load i32, i32* %7, align 4
  %32 = sext i32 %31 to i64
  %33 = getelementptr inbounds [100 x i32], [100 x i32]* %5, i64 0, i64 %32
  %34 = load i32, i32* %33, align 4
  %35 = icmp slt i32 %34, 0
  br i1 %35, label %36, label %58

36:                                               ; preds = %25
  %37 = getelementptr inbounds [100 x i32], [100 x i32]* %5, i64 0, i64 0
  %38 = load i32, i32* %37, align 16
  %39 = sub nsw i32 0, %38
  store i32 %39, i32* %4, align 4
  store i32 1, i32* %8, align 4
  br label %40

40:                                               ; preds = %52, %36
  %41 = load i32, i32* %8, align 4
  %42 = load i32, i32* %7, align 4
  %43 = icmp sle i32 %41, %42
  br i1 %43, label %44, label %55

44:                                               ; preds = %40
  %45 = load i32, i32* %4, align 4
  %46 = mul nsw i32 %45, 10
  %47 = load i32, i32* %8, align 4
  %48 = sext i32 %47 to i64
  %49 = getelementptr inbounds [100 x i32], [100 x i32]* %5, i64 0, i64 %48
  %50 = load i32, i32* %49, align 4
  %51 = sub nsw i32 %46, %50
  store i32 %51, i32* %4, align 4
  br label %52

52:                                               ; preds = %44
  %53 = load i32, i32* %8, align 4
  %54 = add nsw i32 %53, 1
  store i32 %54, i32* %8, align 4
  br label %40

55:                                               ; preds = %40
  %56 = load i32, i32* %4, align 4
  %57 = sub nsw i32 0, %56
  store i32 %57, i32* %4, align 4
  br label %58

58:                                               ; preds = %55, %25
  %59 = load i32, i32* %7, align 4
  %60 = sext i32 %59 to i64
  %61 = getelementptr inbounds [100 x i32], [100 x i32]* %5, i64 0, i64 %60
  %62 = load i32, i32* %61, align 4
  %63 = icmp sge i32 %62, 0
  br i1 %63, label %64, label %83

64:                                               ; preds = %58
  %65 = getelementptr inbounds [100 x i32], [100 x i32]* %5, i64 0, i64 0
  %66 = load i32, i32* %65, align 16
  store i32 %66, i32* %4, align 4
  store i32 1, i32* %9, align 4
  br label %67

67:                                               ; preds = %79, %64
  %68 = load i32, i32* %9, align 4
  %69 = load i32, i32* %7, align 4
  %70 = icmp sle i32 %68, %69
  br i1 %70, label %71, label %82

71:                                               ; preds = %67
  %72 = load i32, i32* %4, align 4
  %73 = mul nsw i32 %72, 10
  %74 = load i32, i32* %9, align 4
  %75 = sext i32 %74 to i64
  %76 = getelementptr inbounds [100 x i32], [100 x i32]* %5, i64 0, i64 %75
  %77 = load i32, i32* %76, align 4
  %78 = add nsw i32 %73, %77
  store i32 %78, i32* %4, align 4
  br label %79

79:                                               ; preds = %71
  %80 = load i32, i32* %9, align 4
  %81 = add nsw i32 %80, 1
  store i32 %81, i32* %9, align 4
  br label %67

82:                                               ; preds = %67
  br label %83

83:                                               ; preds = %82, %58
  %84 = load i32, i32* %4, align 4
  ret i32 %84
}

declare dso_local i32 @printf(i8*, ...) #1


!llvm.module.flags = !{!0}
!llvm.ident = !{!1}

!0 = !{i32 1, !"wchar_size", i32 4}
!1 = !{!"clang version 10.0.0-4ubuntu1 "}
